/*
 * Intel ACPI Component Architecture
 * AML/ASL+ Disassembler version 20210930 (64-bit version)
 * Copyright (c) 2000 - 2021 Intel Corporation
 * 
 * Disassembly of /Volumes/Macintosh HD/Hackintosh/OEM ACPI Tables/NHLT-1.aml, Mon Oct 25 12:56:22 2021
 *
 * ACPI Data Table [NHLT]
 *
 * Format: [HexOffset DecimalOffset ByteLength]  FieldName : FieldValue (in hex)
 */

[000h 0000   4]                    Signature : "NHLT"    
[004h 0004   4]                 Table Length : 00001771
[008h 0008   1]                     Revision : 00
[009h 0009   1]                     Checksum : 70
[00Ah 0010   6]                       Oem ID : "INSYDE"
[010h 0016   8]                 Oem Table ID : "CFL-ULT"
[018h 0024   4]                 Oem Revision : 00000002
[01Ch 0028   4]              Asl Compiler ID : "    "
[020h 0032   4]        Asl Compiler Revision : 01000013

/* Main table */
[024h 0036   1]               Endpoint Count : 01

/* Endpoint Descriptor #1 */
[025h 0037   4]            Descriptor Length : 00001744
[029h 0041   1]                    Link Type : 02 [Type PDM]
[02Ah 0042   1]                  Instance Id : 00
[02Bh 0043   2]                    Vendor Id : 8086
[02Dh 0045   2]                    Device Id : AE20
[02Fh 0047   2]                  Revision Id : 0001
[031h 0049   4]                 Subsystem Id : 00000001
[035h 0053   1]                  Device Type : 01
[036h 0054   1]                    Direction : 01 [Capture]
[037h 0055   1]               Virtual Bus Id : 00

/* Endpoint Device_Specific_Config table */
[038h 0056   4]            Capabilities Size : 00000003
[03Ch 0060   1]                 Virtual Slot : 00
[03Dh 0061   1]                  Config Type : 01
[03Eh 0062   1]                   Array Type : 0D

/* Formats_Config table */
[03Fh 0063   1]                Formats Count : 02

/* Wave_Format_Extensible table #1 */
[040h 0064   2]                   Format Tag : FFFE
[042h 0066   2]                Channel Count : 0004
[044h 0068   4]           Samples Per Second : 0000BB80
[048h 0072   4]     Average Bytes Per Second : 0005DC00
[04Ch 0076   2]              Block Alignment : 0008
[04Eh 0078   2]              Bits Per Sample : 0010
[050h 0080   2]            Extra Format Size : 0016
[052h 0082   2]        Valid Bits Per Sample : 0010
[054h 0084   4]                 Channel Mask : 00000033
[058h 0088  16]               SubFormat GUID : 00000001-0000-0010-8000-00AA00389B71
[068h 0104   4]          Capabilities Length : 00000B68

/* Specific_Config table #1 */
[06Ch 0108 2920]                 Capabilities : \
    01 00 00 00 10 32 FF FF 10 FF FF FF 32 FF FF FF \
    FF FF FF FF 03 00 00 00 03 00 00 00 03 00 32 00 \
    03 00 32 00 03 00 00 00 01 00 00 00 03 13 00 09 \
    00 00 00 00 03 03 00 00 00 00 00 00 00 00 00 00 \
    00 00 00 00 00 00 00 00 11 00 00 00 A0 02 04 00 \
    00 00 00 00 00 00 00 00 00 00 00 00 00 00 00 00 \
    00 00 00 00 00 00 00 00 11 00 00 00 AE 03 0E 00 \
    00 00 00 00 00 00 00 00 00 00 00 00 00 00 00 00 \
    00 00 00 00 00 00 00 00 08 00 00 00 AE FF 0F 00 \
    12 FF 0F 00 FB FD 0F 00 61 FC 0F 00 5A FA 0F 00 \
    2B F8 0F 00 41 F6 0F 00 20 F5 0F 00 44 F5 0F 00 \
    F4 F6 0F 00 25 FA 0F 00 65 FE 0F 00 E0 02 00 00 \
    8F 06 00 00 76 08 00 00 F1 07 00 00 F5 04 00 00 \
    2A 00 00 00 D4 FA 0F 00 8A F6 0F 00 BF F4 0F 00 \
    4F F6 0F 00 20 FB 0F 00 0F 02 00 00 29 09 00 00 \
    2D 0E 00 00 40 0F 00 00 92 0B 00 00 BF 03 00 00 \
    CD F9 0F 00 B0 F0 0F 00 6E EB 0F 00 2A EC 0F 00 \
    51 F3 0F 00 4F FF 0F 00 CD 0C 00 00 9D 17 00 00 \
    FC 1B 00 00 D7 17 00 00 A3 0B 00 00 7E FA 0F 00 \
    6F E9 0F 00 F5 DD 0F 00 4D DC 0F 00 EE E5 0F 00 \
    CE F8 0F 00 B7 0F 00 00 A8 23 00 00 F5 2D 00 00 \
    74 2A 00 00 10 19 00 00 2C FE 0F 00 9C E1 0F 00 \
    64 CC 0F 00 EE C5 0F 00 7E D1 0F 00 D4 EC 0F 00 \
    71 10 00 00 98 31 00 00 7E 45 00 00 C9 44 00 00 \
    24 2E 00 00 28 07 00 00 0E DB 0F 00 81 B7 0F 00 \
    6B A8 0F 00 08 B4 0F 00 84 D8 0F 00 02 0C 00 00 \
    37 3F 00 00 E8 61 00 00 07 68 00 00 C5 4D 00 00 \
    54 19 00 00 8C D9 0F 00 C8 A1 0F 00 0F 84 0F 00 \
    52 8B 0F 00 8C B7 0F 00 23 FD 0F 00 DB 47 00 00 \
    B1 80 00 00 E3 94 00 00 08 7C 00 00 41 3B 00 00 \
    5E E4 0F 00 01 91 0F 00 1E 5B 0F 00 F4 54 0F 00 \
    07 83 0F 00 0B DA 0F 00 8F 41 00 00 D0 9A 00 00 \
    D6 C9 00 00 16 BE 00 00 0B 78 00 00 DD 09 00 00 \
    BA 92 0F 00 06 36 0F 00 ED 10 0F 00 5E 31 0F 00 \
    35 91 0F 00 2C 17 00 00 83 9D 00 00 9E FC 00 00 \
    95 16 01 00 5B E0 00 00 BF 65 00 00 ED C6 0F 00 \
    F4 2F 0F 00 96 CC 0E 00 C9 BB 0E 00 68 06 0F 00 \
    E7 9B 0F 00 01 56 00 00 9E 02 01 00 40 71 01 00 \
    65 80 01 00 28 27 01 00 74 78 00 00 DB 9E 0F 00 \
    02 D2 0E 00 6C 48 0E 00 4D 29 0E 00 0F 82 0E 00 \
    4A 42 0F 00 29 3F 00 00 68 3D 01 00 61 FF 01 00 \
    B2 53 02 00 FA 20 02 00 E1 6B 01 00 38 56 00 00 \
    98 17 0F 00 65 F1 0D 00 1A 21 0D 00 F9 D3 0C 00 \
    B5 1E 0D 00 89 FA 0D 00 02 48 0F 00 56 D6 00 00 \
    63 6D 02 00 08 D8 03 00 C3 EC 04 00 15 93 05 00 \
    20 C5 05 00 B6 8D 05 00 D6 03 05 00 DD 44 04 00 \
    CB 6E 03 00 9A 9B 02 00 5D DE 01 00 34 42 01 00 \
    E0 CA 00 00 69 76 00 00 40 3F 00 00 4E 1E 00 00 \
    95 0C 00 00 3B 04 00 00 F9 00 00 00 61 F9 0F 00 \
    23 08 00 00 4F 08 00 00 39 0A 00 00 21 0D 00 00 \
    A8 10 00 00 9A 14 00 00 CC 18 00 00 15 1D 00 00 \
    4D 21 00 00 43 25 00 00 C8 28 00 00 AA 2B 00 00 \
    B8 2D 00 00 C6 2E 00 00 AC 2E 00 00 4C 2D 00 00 \
    90 2A 00 00 72 26 00 00 F9 20 00 00 3B 1A 00 00 \
    5C 12 00 00 94 09 00 00 25 00 00 00 62 F6 0F 00 \
    A3 EC 0F 00 4C E3 0F 00 BE DA 0F 00 64 D3 0F 00 \
    94 CD 0F 00 A4 C9 0F 00 DD C7 0F 00 6B C8 0F 00 \
    6E CB 0F 00 E6 D0 0F 00 BB D8 0F 00 B9 E2 0F 00 \
    8F EE 0F 00 D5 FB 0F 00 0C 0A 00 00 A3 18 00 00 \
    FC 26 00 00 74 34 00 00 65 40 00 00 36 4A 00 00 \
    5A 51 00 00 5A 55 00 00 DF 55 00 00 B2 52 00 00 \
    C3 4B 00 00 2C 41 00 00 32 33 00 00 42 22 00 00 \
    F3 0E 00 00 FB F9 0F 00 30 E4 0F 00 78 CE 0F 00 \
    C6 B9 0F 00 0F A7 0F 00 3A 97 0F 00 1E 8B 0F 00 \
    6E 83 0F 00 B7 80 0F 00 55 83 0F 00 6E 8B 0F 00 \
    EA 98 0F 00 78 AB 0F 00 88 C2 0F 00 52 DD 0F 00 \
    DF FA 0F 00 0A 1A 00 00 92 39 00 00 23 58 00 00 \
    65 74 00 00 0C 8D 00 00 E3 A0 00 00 DC AE 00 00 \
    1F B6 00 00 14 B6 00 00 6B AE 00 00 23 9F 00 00 \
    8D 88 00 00 4C 6B 00 00 50 48 00 00 D3 20 00 00 \
    47 F6 0F 00 4F CA 0F 00 AE 9E 0F 00 33 75 0F 00 \
    A8 4F 0F 00 C0 2F 0F 00 02 17 0F 00 BA 06 0F 00 \
    E6 FF 0E 00 2D 03 0F 00 D3 10 0F 00 B4 28 0F 00 \
    42 4A 0F 00 86 74 0F 00 2A A6 0F 00 81 DD 0F 00 \
    96 18 00 00 3D 55 00 00 28 91 00 00 FE C9 00 00 \
    6F FD 00 00 4E 29 01 00 A5 4B 01 00 CB 62 01 00 \
    75 6D 01 00 C4 6A 01 00 52 5A 01 00 38 3C 01 00 \
    0D 11 01 00 E9 D9 00 00 56 98 00 00 4A 4E 00 00 \
    17 FE 0F 00 51 AA 0F 00 C4 55 0F 00 50 03 0F 00 \
    D6 B5 0E 00 20 70 0E 00 C8 34 0E 00 20 06 0E 00 \
    1C E6 0D 00 4B D6 0D 00 BD D7 0D 00 03 EB 0D 00 \
    2A 10 0E 00 B5 46 0E 00 AB 8D 0E 00 97 E3 0E 00 \
    99 46 0F 00 79 B4 0F 00 B3 2A 00 00 91 A6 00 00 \
    3C 25 01 00 D9 A3 01 00 98 1F 02 00 CC 95 02 00 \
    00 04 03 00 03 68 03 00 F8 BF 03 00 63 0A 04 00 \
    28 46 04 00 9B 72 04 00 76 8F 04 00 D2 9C 04 00 \
    35 9B 04 00 71 8B 04 00 A5 6E 04 00 32 46 04 00 \
    A6 13 04 00 B3 D8 03 00 1B 97 03 00 A6 50 03 00 \
    16 07 03 00 15 BC 02 00 31 71 02 00 CB 27 02 00 \
    1D E1 01 00 2A 9E 01 00 C1 5F 01 00 7C 26 01 00 \
    C0 F2 00 00 C2 C4 00 00 8B 9C 00 00 FB 79 00 00 \
    D2 5C 00 00 B2 44 00 00 2D 31 00 00 C5 21 00 00 \
    F4 15 00 00 5E 13 00 00 01 00 00 00 03 13 00 09 \
    00 00 00 00 03 03 00 00 00 00 00 00 00 00 00 00 \
    00 00 00 00 00 00 00 00 11 00 00 00 A0 02 04 00 \
    00 00 00 00 00 00 00 00 00 00 00 00 00 00 00 00 \
    00 00 00 00 00 00 00 00 11 00 00 00 AE 03 0E 00 \
    00 00 00 00 00 00 00 00 00 00 00 00 00 00 00 00 \
    00 00 00 00 00 00 00 00 08 00 00 00 AE FF 0F 00 \
    12 FF 0F 00 FB FD 0F 00 61 FC 0F 00 5A FA 0F 00 \
    2B F8 0F 00 41 F6 0F 00 20 F5 0F 00 44 F5 0F 00 \
    F4 F6 0F 00 25 FA 0F 00 65 FE 0F 00 E0 02 00 00 \
    8F 06 00 00 76 08 00 00 F1 07 00 00 F5 04 00 00 \
    2A 00 00 00 D4 FA 0F 00 8A F6 0F 00 BF F4 0F 00 \
    4F F6 0F 00 20 FB 0F 00 0F 02 00 00 29 09 00 00 \
    2D 0E 00 00 40 0F 00 00 92 0B 00 00 BF 03 00 00 \
    CD F9 0F 00 B0 F0 0F 00 6E EB 0F 00 2A EC 0F 00 \
    51 F3 0F 00 4F FF 0F 00 CD 0C 00 00 9D 17 00 00 \
    FC 1B 00 00 D7 17 00 00 A3 0B 00 00 7E FA 0F 00 \
    6F E9 0F 00 F5 DD 0F 00 4D DC 0F 00 EE E5 0F 00 \
    CE F8 0F 00 B7 0F 00 00 A8 23 00 00 F5 2D 00 00 \
    74 2A 00 00 10 19 00 00 2C FE 0F 00 9C E1 0F 00 \
    64 CC 0F 00 EE C5 0F 00 7E D1 0F 00 D4 EC 0F 00 \
    71 10 00 00 98 31 00 00 7E 45 00 00 C9 44 00 00 \
    24 2E 00 00 28 07 00 00 0E DB 0F 00 81 B7 0F 00 \
    6B A8 0F 00 08 B4 0F 00 84 D8 0F 00 02 0C 00 00 \
    37 3F 00 00 E8 61 00 00 07 68 00 00 C5 4D 00 00 \
    54 19 00 00 8C D9 0F 00 C8 A1 0F 00 0F 84 0F 00 \
    52 8B 0F 00 8C B7 0F 00 23 FD 0F 00 DB 47 00 00 \
    B1 80 00 00 E3 94 00 00 08 7C 00 00 41 3B 00 00 \
    5E E4 0F 00 01 91 0F 00 1E 5B 0F 00 F4 54 0F 00 \
    07 83 0F 00 0B DA 0F 00 8F 41 00 00 D0 9A 00 00 \
    D6 C9 00 00 16 BE 00 00 0B 78 00 00 DD 09 00 00 \
    BA 92 0F 00 06 36 0F 00 ED 10 0F 00 5E 31 0F 00 \
    35 91 0F 00 2C 17 00 00 83 9D 00 00 9E FC 00 00 \
    95 16 01 00 5B E0 00 00 BF 65 00 00 ED C6 0F 00 \
    F4 2F 0F 00 96 CC 0E 00 C9 BB 0E 00 68 06 0F 00 \
    E7 9B 0F 00 01 56 00 00 9E 02 01 00 40 71 01 00 \
    65 80 01 00 28 27 01 00 74 78 00 00 DB 9E 0F 00 \
    02 D2 0E 00 6C 48 0E 00 4D 29 0E 00 0F 82 0E 00 \
    4A 42 0F 00 29 3F 00 00 68 3D 01 00 61 FF 01 00 \
    B2 53 02 00 FA 20 02 00 E1 6B 01 00 38 56 00 00 \
    98 17 0F 00 65 F1 0D 00 1A 21 0D 00 F9 D3 0C 00 \
    B5 1E 0D 00 89 FA 0D 00 02 48 0F 00 56 D6 00 00 \
    63 6D 02 00 08 D8 03 00 C3 EC 04 00 15 93 05 00 \
    20 C5 05 00 B6 8D 05 00 D6 03 05 00 DD 44 04 00 \
    CB 6E 03 00 9A 9B 02 00 5D DE 01 00 34 42 01 00 \
    E0 CA 00 00 69 76 00 00 40 3F 00 00 4E 1E 00 00 \
    95 0C 00 00 3B 04 00 00 F9 00 00 00 61 F9 0F 00 \
    23 08 00 00 4F 08 00 00 39 0A 00 00 21 0D 00 00 \
    A8 10 00 00 9A 14 00 00 CC 18 00 00 15 1D 00 00 \
    4D 21 00 00 43 25 00 00 C8 28 00 00 AA 2B 00 00 \
    B8 2D 00 00 C6 2E 00 00 AC 2E 00 00 4C 2D 00 00 \
    90 2A 00 00 72 26 00 00 F9 20 00 00 3B 1A 00 00 \
    5C 12 00 00 94 09 00 00 25 00 00 00 62 F6 0F 00 \
    A3 EC 0F 00 4C E3 0F 00 BE DA 0F 00 64 D3 0F 00 \
    94 CD 0F 00 A4 C9 0F 00 DD C7 0F 00 6B C8 0F 00 \
    6E CB 0F 00 E6 D0 0F 00 BB D8 0F 00 B9 E2 0F 00 \
    8F EE 0F 00 D5 FB 0F 00 0C 0A 00 00 A3 18 00 00 \
    FC 26 00 00 74 34 00 00 65 40 00 00 36 4A 00 00 \
    5A 51 00 00 5A 55 00 00 DF 55 00 00 B2 52 00 00 \
    C3 4B 00 00 2C 41 00 00 32 33 00 00 42 22 00 00 \
    F3 0E 00 00 FB F9 0F 00 30 E4 0F 00 78 CE 0F 00 \
    C6 B9 0F 00 0F A7 0F 00 3A 97 0F 00 1E 8B 0F 00 \
    6E 83 0F 00 B7 80 0F 00 55 83 0F 00 6E 8B 0F 00 \
    EA 98 0F 00 78 AB 0F 00 88 C2 0F 00 52 DD 0F 00 \
    DF FA 0F 00 0A 1A 00 00 92 39 00 00 23 58 00 00 \
    65 74 00 00 0C 8D 00 00 E3 A0 00 00 DC AE 00 00 \
    1F B6 00 00 14 B6 00 00 6B AE 00 00 23 9F 00 00 \
    8D 88 00 00 4C 6B 00 00 50 48 00 00 D3 20 00 00 \
    47 F6 0F 00 4F CA 0F 00 AE 9E 0F 00 33 75 0F 00 \
    A8 4F 0F 00 C0 2F 0F 00 02 17 0F 00 BA 06 0F 00 \
    E6 FF 0E 00 2D 03 0F 00 D3 10 0F 00 B4 28 0F 00 \
    42 4A 0F 00 86 74 0F 00 2A A6 0F 00 81 DD 0F 00 \
    96 18 00 00 3D 55 00 00 28 91 00 00 FE C9 00 00 \
    6F FD 00 00 4E 29 01 00 A5 4B 01 00 CB 62 01 00 \
    75 6D 01 00 C4 6A 01 00 52 5A 01 00 38 3C 01 00 \
    0D 11 01 00 E9 D9 00 00 56 98 00 00 4A 4E 00 00 \
    17 FE 0F 00 51 AA 0F 00 C4 55 0F 00 50 03 0F 00 \
    D6 B5 0E 00 20 70 0E 00 C8 34 0E 00 20 06 0E 00 \
    1C E6 0D 00 4B D6 0D 00 BD D7 0D 00 03 EB 0D 00 \
    2A 10 0E 00 B5 46 0E 00 AB 8D 0E 00 97 E3 0E 00 \
    99 46 0F 00 79 B4 0F 00 B3 2A 00 00 91 A6 00 00 \
    3C 25 01 00 D9 A3 01 00 98 1F 02 00 CC 95 02 00 \
    00 04 03 00 03 68 03 00 F8 BF 03 00 63 0A 04 00 \
    28 46 04 00 9B 72 04 00 76 8F 04 00 D2 9C 04 00 \
    35 9B 04 00 71 8B 04 00 A5 6E 04 00 32 46 04 00 \
    A6 13 04 00 B3 D8 03 00 1B 97 03 00 A6 50 03 00 \
    16 07 03 00 15 BC 02 00 31 71 02 00 CB 27 02 00 \
    1D E1 01 00 2A 9E 01 00 C1 5F 01 00 7C 26 01 00 \
    C0 F2 00 00 C2 C4 00 00 8B 9C 00 00 FB 79 00 00 \
    D2 5C 00 00 B2 44 00 00 2D 31 00 00 C5 21 00 00 \
    F4 15 00 00 5E 13 00 00 

/* Wave_Format_Extensible table #2 */
[BD4h 3028   2]                   Format Tag : FFFE
[BD6h 3030   2]                Channel Count : 0004
[BD8h 3032   4]           Samples Per Second : 0000BB80
[BDCh 3036   4]     Average Bytes Per Second : 0005DC00
[BE0h 3040   2]              Block Alignment : 0008
[BE2h 3042   2]              Bits Per Sample : 0020
[BE4h 3044   2]            Extra Format Size : 0016
[BE6h 3046   2]        Valid Bits Per Sample : 0018
[BE8h 3048   4]                 Channel Mask : 00000033
[BECh 3052  16]               SubFormat GUID : 00000001-0000-0010-8000-00AA00389B71
[BFCh 3068   4]          Capabilities Length : 00000B68

/* Specific_Config table #2 */
[C00h 3072 2920]                 Capabilities : \
    01 00 00 00 10 32 FF FF 10 FF FF FF 32 FF FF FF \
    FF FF FF FF 03 00 00 00 03 00 00 00 03 00 3A 00 \
    03 00 3A 00 03 00 00 00 01 00 00 00 03 13 00 09 \
    00 00 00 00 03 03 00 00 00 00 00 00 00 00 00 00 \
    00 00 00 00 00 00 00 00 11 00 00 00 A0 02 04 00 \
    00 00 00 00 00 00 00 00 00 00 00 00 00 00 00 00 \
    00 00 00 00 00 00 00 00 11 00 00 00 AE 03 0E 00 \
    00 00 00 00 00 00 00 00 00 00 00 00 00 00 00 00 \
    00 00 00 00 00 00 00 00 08 00 00 00 AE FF 0F 00 \
    12 FF 0F 00 FB FD 0F 00 61 FC 0F 00 5A FA 0F 00 \
    2B F8 0F 00 41 F6 0F 00 20 F5 0F 00 44 F5 0F 00 \
    F4 F6 0F 00 25 FA 0F 00 65 FE 0F 00 E0 02 00 00 \
    8F 06 00 00 76 08 00 00 F1 07 00 00 F5 04 00 00 \
    2A 00 00 00 D4 FA 0F 00 8A F6 0F 00 BF F4 0F 00 \
    4F F6 0F 00 20 FB 0F 00 0F 02 00 00 29 09 00 00 \
    2D 0E 00 00 40 0F 00 00 92 0B 00 00 BF 03 00 00 \
    CD F9 0F 00 B0 F0 0F 00 6E EB 0F 00 2A EC 0F 00 \
    51 F3 0F 00 4F FF 0F 00 CD 0C 00 00 9D 17 00 00 \
    FC 1B 00 00 D7 17 00 00 A3 0B 00 00 7E FA 0F 00 \
    6F E9 0F 00 F5 DD 0F 00 4D DC 0F 00 EE E5 0F 00 \
    CE F8 0F 00 B7 0F 00 00 A8 23 00 00 F5 2D 00 00 \
    74 2A 00 00 10 19 00 00 2C FE 0F 00 9C E1 0F 00 \
    64 CC 0F 00 EE C5 0F 00 7E D1 0F 00 D4 EC 0F 00 \
    71 10 00 00 98 31 00 00 7E 45 00 00 C9 44 00 00 \
    24 2E 00 00 28 07 00 00 0E DB 0F 00 81 B7 0F 00 \
    6B A8 0F 00 08 B4 0F 00 84 D8 0F 00 02 0C 00 00 \
    37 3F 00 00 E8 61 00 00 07 68 00 00 C5 4D 00 00 \
    54 19 00 00 8C D9 0F 00 C8 A1 0F 00 0F 84 0F 00 \
    52 8B 0F 00 8C B7 0F 00 23 FD 0F 00 DB 47 00 00 \
    B1 80 00 00 E3 94 00 00 08 7C 00 00 41 3B 00 00 \
    5E E4 0F 00 01 91 0F 00 1E 5B 0F 00 F4 54 0F 00 \
    07 83 0F 00 0B DA 0F 00 8F 41 00 00 D0 9A 00 00 \
    D6 C9 00 00 16 BE 00 00 0B 78 00 00 DD 09 00 00 \
    BA 92 0F 00 06 36 0F 00 ED 10 0F 00 5E 31 0F 00 \
    35 91 0F 00 2C 17 00 00 83 9D 00 00 9E FC 00 00 \
    95 16 01 00 5B E0 00 00 BF 65 00 00 ED C6 0F 00 \
    F4 2F 0F 00 96 CC 0E 00 C9 BB 0E 00 68 06 0F 00 \
    E7 9B 0F 00 01 56 00 00 9E 02 01 00 40 71 01 00 \
    65 80 01 00 28 27 01 00 74 78 00 00 DB 9E 0F 00 \
    02 D2 0E 00 6C 48 0E 00 4D 29 0E 00 0F 82 0E 00 \
    4A 42 0F 00 29 3F 00 00 68 3D 01 00 61 FF 01 00 \
    B2 53 02 00 FA 20 02 00 E1 6B 01 00 38 56 00 00 \
    98 17 0F 00 65 F1 0D 00 1A 21 0D 00 F9 D3 0C 00 \
    B5 1E 0D 00 89 FA 0D 00 02 48 0F 00 56 D6 00 00 \
    63 6D 02 00 08 D8 03 00 C3 EC 04 00 15 93 05 00 \
    20 C5 05 00 B6 8D 05 00 D6 03 05 00 DD 44 04 00 \
    CB 6E 03 00 9A 9B 02 00 5D DE 01 00 34 42 01 00 \
    E0 CA 00 00 69 76 00 00 40 3F 00 00 4E 1E 00 00 \
    95 0C 00 00 3B 04 00 00 F9 00 00 00 61 F9 0F 00 \
    23 08 00 00 4F 08 00 00 39 0A 00 00 21 0D 00 00 \
    A8 10 00 00 9A 14 00 00 CC 18 00 00 15 1D 00 00 \
    4D 21 00 00 43 25 00 00 C8 28 00 00 AA 2B 00 00 \
    B8 2D 00 00 C6 2E 00 00 AC 2E 00 00 4C 2D 00 00 \
    90 2A 00 00 72 26 00 00 F9 20 00 00 3B 1A 00 00 \
    5C 12 00 00 94 09 00 00 25 00 00 00 62 F6 0F 00 \
    A3 EC 0F 00 4C E3 0F 00 BE DA 0F 00 64 D3 0F 00 \
    94 CD 0F 00 A4 C9 0F 00 DD C7 0F 00 6B C8 0F 00 \
    6E CB 0F 00 E6 D0 0F 00 BB D8 0F 00 B9 E2 0F 00 \
    8F EE 0F 00 D5 FB 0F 00 0C 0A 00 00 A3 18 00 00 \
    FC 26 00 00 74 34 00 00 65 40 00 00 36 4A 00 00 \
    5A 51 00 00 5A 55 00 00 DF 55 00 00 B2 52 00 00 \
    C3 4B 00 00 2C 41 00 00 32 33 00 00 42 22 00 00 \
    F3 0E 00 00 FB F9 0F 00 30 E4 0F 00 78 CE 0F 00 \
    C6 B9 0F 00 0F A7 0F 00 3A 97 0F 00 1E 8B 0F 00 \
    6E 83 0F 00 B7 80 0F 00 55 83 0F 00 6E 8B 0F 00 \
    EA 98 0F 00 78 AB 0F 00 88 C2 0F 00 52 DD 0F 00 \
    DF FA 0F 00 0A 1A 00 00 92 39 00 00 23 58 00 00 \
    65 74 00 00 0C 8D 00 00 E3 A0 00 00 DC AE 00 00 \
    1F B6 00 00 14 B6 00 00 6B AE 00 00 23 9F 00 00 \
    8D 88 00 00 4C 6B 00 00 50 48 00 00 D3 20 00 00 \
    47 F6 0F 00 4F CA 0F 00 AE 9E 0F 00 33 75 0F 00 \
    A8 4F 0F 00 C0 2F 0F 00 02 17 0F 00 BA 06 0F 00 \
    E6 FF 0E 00 2D 03 0F 00 D3 10 0F 00 B4 28 0F 00 \
    42 4A 0F 00 86 74 0F 00 2A A6 0F 00 81 DD 0F 00 \
    96 18 00 00 3D 55 00 00 28 91 00 00 FE C9 00 00 \
    6F FD 00 00 4E 29 01 00 A5 4B 01 00 CB 62 01 00 \
    75 6D 01 00 C4 6A 01 00 52 5A 01 00 38 3C 01 00 \
    0D 11 01 00 E9 D9 00 00 56 98 00 00 4A 4E 00 00 \
    17 FE 0F 00 51 AA 0F 00 C4 55 0F 00 50 03 0F 00 \
    D6 B5 0E 00 20 70 0E 00 C8 34 0E 00 20 06 0E 00 \
    1C E6 0D 00 4B D6 0D 00 BD D7 0D 00 03 EB 0D 00 \
    2A 10 0E 00 B5 46 0E 00 AB 8D 0E 00 97 E3 0E 00 \
    99 46 0F 00 79 B4 0F 00 B3 2A 00 00 91 A6 00 00 \
    3C 25 01 00 D9 A3 01 00 98 1F 02 00 CC 95 02 00 \
    00 04 03 00 03 68 03 00 F8 BF 03 00 63 0A 04 00 \
    28 46 04 00 9B 72 04 00 76 8F 04 00 D2 9C 04 00 \
    35 9B 04 00 71 8B 04 00 A5 6E 04 00 32 46 04 00 \
    A6 13 04 00 B3 D8 03 00 1B 97 03 00 A6 50 03 00 \
    16 07 03 00 15 BC 02 00 31 71 02 00 CB 27 02 00 \
    1D E1 01 00 2A 9E 01 00 C1 5F 01 00 7C 26 01 00 \
    C0 F2 00 00 C2 C4 00 00 8B 9C 00 00 FB 79 00 00 \
    D2 5C 00 00 B2 44 00 00 2D 31 00 00 C5 21 00 00 \
    F4 15 00 00 5E 13 00 00 01 00 00 00 03 13 00 09 \
    00 00 00 00 03 03 00 00 00 00 00 00 00 00 00 00 \
    00 00 00 00 00 00 00 00 11 00 00 00 A0 02 04 00 \
    00 00 00 00 00 00 00 00 00 00 00 00 00 00 00 00 \
    00 00 00 00 00 00 00 00 11 00 00 00 AE 03 0E 00 \
    00 00 00 00 00 00 00 00 00 00 00 00 00 00 00 00 \
    00 00 00 00 00 00 00 00 08 00 00 00 AE FF 0F 00 \
    12 FF 0F 00 FB FD 0F 00 61 FC 0F 00 5A FA 0F 00 \
    2B F8 0F 00 41 F6 0F 00 20 F5 0F 00 44 F5 0F 00 \
    F4 F6 0F 00 25 FA 0F 00 65 FE 0F 00 E0 02 00 00 \
    8F 06 00 00 76 08 00 00 F1 07 00 00 F5 04 00 00 \
    2A 00 00 00 D4 FA 0F 00 8A F6 0F 00 BF F4 0F 00 \
    4F F6 0F 00 20 FB 0F 00 0F 02 00 00 29 09 00 00 \
    2D 0E 00 00 40 0F 00 00 92 0B 00 00 BF 03 00 00 \
    CD F9 0F 00 B0 F0 0F 00 6E EB 0F 00 2A EC 0F 00 \
    51 F3 0F 00 4F FF 0F 00 CD 0C 00 00 9D 17 00 00 \
    FC 1B 00 00 D7 17 00 00 A3 0B 00 00 7E FA 0F 00 \
    6F E9 0F 00 F5 DD 0F 00 4D DC 0F 00 EE E5 0F 00 \
    CE F8 0F 00 B7 0F 00 00 A8 23 00 00 F5 2D 00 00 \
    74 2A 00 00 10 19 00 00 2C FE 0F 00 9C E1 0F 00 \
    64 CC 0F 00 EE C5 0F 00 7E D1 0F 00 D4 EC 0F 00 \
    71 10 00 00 98 31 00 00 7E 45 00 00 C9 44 00 00 \
    24 2E 00 00 28 07 00 00 0E DB 0F 00 81 B7 0F 00 \
    6B A8 0F 00 08 B4 0F 00 84 D8 0F 00 02 0C 00 00 \
    37 3F 00 00 E8 61 00 00 07 68 00 00 C5 4D 00 00 \
    54 19 00 00 8C D9 0F 00 C8 A1 0F 00 0F 84 0F 00 \
    52 8B 0F 00 8C B7 0F 00 23 FD 0F 00 DB 47 00 00 \
    B1 80 00 00 E3 94 00 00 08 7C 00 00 41 3B 00 00 \
    5E E4 0F 00 01 91 0F 00 1E 5B 0F 00 F4 54 0F 00 \
    07 83 0F 00 0B DA 0F 00 8F 41 00 00 D0 9A 00 00 \
    D6 C9 00 00 16 BE 00 00 0B 78 00 00 DD 09 00 00 \
    BA 92 0F 00 06 36 0F 00 ED 10 0F 00 5E 31 0F 00 \
    35 91 0F 00 2C 17 00 00 83 9D 00 00 9E FC 00 00 \
    95 16 01 00 5B E0 00 00 BF 65 00 00 ED C6 0F 00 \
    F4 2F 0F 00 96 CC 0E 00 C9 BB 0E 00 68 06 0F 00 \
    E7 9B 0F 00 01 56 00 00 9E 02 01 00 40 71 01 00 \
    65 80 01 00 28 27 01 00 74 78 00 00 DB 9E 0F 00 \
    02 D2 0E 00 6C 48 0E 00 4D 29 0E 00 0F 82 0E 00 \
    4A 42 0F 00 29 3F 00 00 68 3D 01 00 61 FF 01 00 \
    B2 53 02 00 FA 20 02 00 E1 6B 01 00 38 56 00 00 \
    98 17 0F 00 65 F1 0D 00 1A 21 0D 00 F9 D3 0C 00 \
    B5 1E 0D 00 89 FA 0D 00 02 48 0F 00 56 D6 00 00 \
    63 6D 02 00 08 D8 03 00 C3 EC 04 00 15 93 05 00 \
    20 C5 05 00 B6 8D 05 00 D6 03 05 00 DD 44 04 00 \
    CB 6E 03 00 9A 9B 02 00 5D DE 01 00 34 42 01 00 \
    E0 CA 00 00 69 76 00 00 40 3F 00 00 4E 1E 00 00 \
    95 0C 00 00 3B 04 00 00 F9 00 00 00 61 F9 0F 00 \
    23 08 00 00 4F 08 00 00 39 0A 00 00 21 0D 00 00 \
    A8 10 00 00 9A 14 00 00 CC 18 00 00 15 1D 00 00 \
    4D 21 00 00 43 25 00 00 C8 28 00 00 AA 2B 00 00 \
    B8 2D 00 00 C6 2E 00 00 AC 2E 00 00 4C 2D 00 00 \
    90 2A 00 00 72 26 00 00 F9 20 00 00 3B 1A 00 00 \
    5C 12 00 00 94 09 00 00 25 00 00 00 62 F6 0F 00 \
    A3 EC 0F 00 4C E3 0F 00 BE DA 0F 00 64 D3 0F 00 \
    94 CD 0F 00 A4 C9 0F 00 DD C7 0F 00 6B C8 0F 00 \
    6E CB 0F 00 E6 D0 0F 00 BB D8 0F 00 B9 E2 0F 00 \
    8F EE 0F 00 D5 FB 0F 00 0C 0A 00 00 A3 18 00 00 \
    FC 26 00 00 74 34 00 00 65 40 00 00 36 4A 00 00 \
    5A 51 00 00 5A 55 00 00 DF 55 00 00 B2 52 00 00 \
    C3 4B 00 00 2C 41 00 00 32 33 00 00 42 22 00 00 \
    F3 0E 00 00 FB F9 0F 00 30 E4 0F 00 78 CE 0F 00 \
    C6 B9 0F 00 0F A7 0F 00 3A 97 0F 00 1E 8B 0F 00 \
    6E 83 0F 00 B7 80 0F 00 55 83 0F 00 6E 8B 0F 00 \
    EA 98 0F 00 78 AB 0F 00 88 C2 0F 00 52 DD 0F 00 \
    DF FA 0F 00 0A 1A 00 00 92 39 00 00 23 58 00 00 \
    65 74 00 00 0C 8D 00 00 E3 A0 00 00 DC AE 00 00 \
    1F B6 00 00 14 B6 00 00 6B AE 00 00 23 9F 00 00 \
    8D 88 00 00 4C 6B 00 00 50 48 00 00 D3 20 00 00 \
    47 F6 0F 00 4F CA 0F 00 AE 9E 0F 00 33 75 0F 00 \
    A8 4F 0F 00 C0 2F 0F 00 02 17 0F 00 BA 06 0F 00 \
    E6 FF 0E 00 2D 03 0F 00 D3 10 0F 00 B4 28 0F 00 \
    42 4A 0F 00 86 74 0F 00 2A A6 0F 00 81 DD 0F 00 \
    96 18 00 00 3D 55 00 00 28 91 00 00 FE C9 00 00 \
    6F FD 00 00 4E 29 01 00 A5 4B 01 00 CB 62 01 00 \
    75 6D 01 00 C4 6A 01 00 52 5A 01 00 38 3C 01 00 \
    0D 11 01 00 E9 D9 00 00 56 98 00 00 4A 4E 00 00 \
    17 FE 0F 00 51 AA 0F 00 C4 55 0F 00 50 03 0F 00 \
    D6 B5 0E 00 20 70 0E 00 C8 34 0E 00 20 06 0E 00 \
    1C E6 0D 00 4B D6 0D 00 BD D7 0D 00 03 EB 0D 00 \
    2A 10 0E 00 B5 46 0E 00 AB 8D 0E 00 97 E3 0E 00 \
    99 46 0F 00 79 B4 0F 00 B3 2A 00 00 91 A6 00 00 \
    3C 25 01 00 D9 A3 01 00 98 1F 02 00 CC 95 02 00 \
    00 04 03 00 03 68 03 00 F8 BF 03 00 63 0A 04 00 \
    28 46 04 00 9B 72 04 00 76 8F 04 00 D2 9C 04 00 \
    35 9B 04 00 71 8B 04 00 A5 6E 04 00 32 46 04 00 \
    A6 13 04 00 B3 D8 03 00 1B 97 03 00 A6 50 03 00 \
    16 07 03 00 15 BC 02 00 31 71 02 00 CB 27 02 00 \
    1D E1 01 00 2A 9E 01 00 C1 5F 01 00 7C 26 01 00 \
    C0 F2 00 00 C2 C4 00 00 8B 9C 00 00 FB 79 00 00 \
    D2 5C 00 00 B2 44 00 00 2D 31 00 00 C5 21 00 00 \
    F4 15 00 00 5E 13 00 00 

[1768h 5992   1]  Linux-specific struct count : 00

/* Table terminator structure */
[1769h 5993   4]             Terminator Value : 00000004
[176Dh 5997   4]         Terminator Signature : EFBEADDE

Raw Table Data: Length 6001 (0x1771)

    0000: 4E 48 4C 54 71 17 00 00 00 70 49 4E 53 59 44 45  // NHLTq....pINSYDE
    0010: 43 46 4C 2D 55 4C 54 00 02 00 00 00 20 20 20 20  // CFL-ULT.....    
    0020: 13 00 00 01 01 44 17 00 00 02 00 86 80 20 AE 01  // .....D....... ..
    0030: 00 01 00 00 00 01 01 00 03 00 00 00 00 01 0D 02  // ................
    0040: FE FF 04 00 80 BB 00 00 00 DC 05 00 08 00 10 00  // ................
    0050: 16 00 10 00 33 00 00 00 01 00 00 00 00 00 10 00  // ....3...........
    0060: 80 00 00 AA 00 38 9B 71 68 0B 00 00 01 00 00 00  // .....8.qh.......
    0070: 10 32 FF FF 10 FF FF FF 32 FF FF FF FF FF FF FF  // .2......2.......
    0080: 03 00 00 00 03 00 00 00 03 00 32 00 03 00 32 00  // ..........2...2.
    0090: 03 00 00 00 01 00 00 00 03 13 00 09 00 00 00 00  // ................
    00A0: 03 03 00 00 00 00 00 00 00 00 00 00 00 00 00 00  // ................
    00B0: 00 00 00 00 11 00 00 00 A0 02 04 00 00 00 00 00  // ................
    00C0: 00 00 00 00 00 00 00 00 00 00 00 00 00 00 00 00  // ................
    00D0: 00 00 00 00 11 00 00 00 AE 03 0E 00 00 00 00 00  // ................
    00E0: 00 00 00 00 00 00 00 00 00 00 00 00 00 00 00 00  // ................
    00F0: 00 00 00 00 08 00 00 00 AE FF 0F 00 12 FF 0F 00  // ................
    0100: FB FD 0F 00 61 FC 0F 00 5A FA 0F 00 2B F8 0F 00  // ....a...Z...+...
    0110: 41 F6 0F 00 20 F5 0F 00 44 F5 0F 00 F4 F6 0F 00  // A... ...D.......
    0120: 25 FA 0F 00 65 FE 0F 00 E0 02 00 00 8F 06 00 00  // %...e...........
    0130: 76 08 00 00 F1 07 00 00 F5 04 00 00 2A 00 00 00  // v...........*...
    0140: D4 FA 0F 00 8A F6 0F 00 BF F4 0F 00 4F F6 0F 00  // ............O...
    0150: 20 FB 0F 00 0F 02 00 00 29 09 00 00 2D 0E 00 00  //  .......)...-...
    0160: 40 0F 00 00 92 0B 00 00 BF 03 00 00 CD F9 0F 00  // @...............
    0170: B0 F0 0F 00 6E EB 0F 00 2A EC 0F 00 51 F3 0F 00  // ....n...*...Q...
    0180: 4F FF 0F 00 CD 0C 00 00 9D 17 00 00 FC 1B 00 00  // O...............
    0190: D7 17 00 00 A3 0B 00 00 7E FA 0F 00 6F E9 0F 00  // ........~...o...
    01A0: F5 DD 0F 00 4D DC 0F 00 EE E5 0F 00 CE F8 0F 00  // ....M...........
    01B0: B7 0F 00 00 A8 23 00 00 F5 2D 00 00 74 2A 00 00  // .....#...-..t*..
    01C0: 10 19 00 00 2C FE 0F 00 9C E1 0F 00 64 CC 0F 00  // ....,.......d...
    01D0: EE C5 0F 00 7E D1 0F 00 D4 EC 0F 00 71 10 00 00  // ....~.......q...
    01E0: 98 31 00 00 7E 45 00 00 C9 44 00 00 24 2E 00 00  // .1..~E...D..$...
    01F0: 28 07 00 00 0E DB 0F 00 81 B7 0F 00 6B A8 0F 00  // (...........k...
    0200: 08 B4 0F 00 84 D8 0F 00 02 0C 00 00 37 3F 00 00  // ............7?..
    0210: E8 61 00 00 07 68 00 00 C5 4D 00 00 54 19 00 00  // .a...h...M..T...
    0220: 8C D9 0F 00 C8 A1 0F 00 0F 84 0F 00 52 8B 0F 00  // ............R...
    0230: 8C B7 0F 00 23 FD 0F 00 DB 47 00 00 B1 80 00 00  // ....#....G......
    0240: E3 94 00 00 08 7C 00 00 41 3B 00 00 5E E4 0F 00  // .....|..A;..^...
    0250: 01 91 0F 00 1E 5B 0F 00 F4 54 0F 00 07 83 0F 00  // .....[...T......
    0260: 0B DA 0F 00 8F 41 00 00 D0 9A 00 00 D6 C9 00 00  // .....A..........
    0270: 16 BE 00 00 0B 78 00 00 DD 09 00 00 BA 92 0F 00  // .....x..........
    0280: 06 36 0F 00 ED 10 0F 00 5E 31 0F 00 35 91 0F 00  // .6......^1..5...
    0290: 2C 17 00 00 83 9D 00 00 9E FC 00 00 95 16 01 00  // ,...............
    02A0: 5B E0 00 00 BF 65 00 00 ED C6 0F 00 F4 2F 0F 00  // [....e......./..
    02B0: 96 CC 0E 00 C9 BB 0E 00 68 06 0F 00 E7 9B 0F 00  // ........h.......
    02C0: 01 56 00 00 9E 02 01 00 40 71 01 00 65 80 01 00  // .V......@q..e...
    02D0: 28 27 01 00 74 78 00 00 DB 9E 0F 00 02 D2 0E 00  // ('..tx..........
    02E0: 6C 48 0E 00 4D 29 0E 00 0F 82 0E 00 4A 42 0F 00  // lH..M)......JB..
    02F0: 29 3F 00 00 68 3D 01 00 61 FF 01 00 B2 53 02 00  // )?..h=..a....S..
    0300: FA 20 02 00 E1 6B 01 00 38 56 00 00 98 17 0F 00  // . ...k..8V......
    0310: 65 F1 0D 00 1A 21 0D 00 F9 D3 0C 00 B5 1E 0D 00  // e....!..........
    0320: 89 FA 0D 00 02 48 0F 00 56 D6 00 00 63 6D 02 00  // .....H..V...cm..
    0330: 08 D8 03 00 C3 EC 04 00 15 93 05 00 20 C5 05 00  // ............ ...
    0340: B6 8D 05 00 D6 03 05 00 DD 44 04 00 CB 6E 03 00  // .........D...n..
    0350: 9A 9B 02 00 5D DE 01 00 34 42 01 00 E0 CA 00 00  // ....]...4B......
    0360: 69 76 00 00 40 3F 00 00 4E 1E 00 00 95 0C 00 00  // iv..@?..N.......
    0370: 3B 04 00 00 F9 00 00 00 61 F9 0F 00 23 08 00 00  // ;.......a...#...
    0380: 4F 08 00 00 39 0A 00 00 21 0D 00 00 A8 10 00 00  // O...9...!.......
    0390: 9A 14 00 00 CC 18 00 00 15 1D 00 00 4D 21 00 00  // ............M!..
    03A0: 43 25 00 00 C8 28 00 00 AA 2B 00 00 B8 2D 00 00  // C%...(...+...-..
    03B0: C6 2E 00 00 AC 2E 00 00 4C 2D 00 00 90 2A 00 00  // ........L-...*..
    03C0: 72 26 00 00 F9 20 00 00 3B 1A 00 00 5C 12 00 00  // r&... ..;...\...
    03D0: 94 09 00 00 25 00 00 00 62 F6 0F 00 A3 EC 0F 00  // ....%...b.......
    03E0: 4C E3 0F 00 BE DA 0F 00 64 D3 0F 00 94 CD 0F 00  // L.......d.......
    03F0: A4 C9 0F 00 DD C7 0F 00 6B C8 0F 00 6E CB 0F 00  // ........k...n...
    0400: E6 D0 0F 00 BB D8 0F 00 B9 E2 0F 00 8F EE 0F 00  // ................
    0410: D5 FB 0F 00 0C 0A 00 00 A3 18 00 00 FC 26 00 00  // .............&..
    0420: 74 34 00 00 65 40 00 00 36 4A 00 00 5A 51 00 00  // t4..e@..6J..ZQ..
    0430: 5A 55 00 00 DF 55 00 00 B2 52 00 00 C3 4B 00 00  // ZU...U...R...K..
    0440: 2C 41 00 00 32 33 00 00 42 22 00 00 F3 0E 00 00  // ,A..23..B"......
    0450: FB F9 0F 00 30 E4 0F 00 78 CE 0F 00 C6 B9 0F 00  // ....0...x.......
    0460: 0F A7 0F 00 3A 97 0F 00 1E 8B 0F 00 6E 83 0F 00  // ....:.......n...
    0470: B7 80 0F 00 55 83 0F 00 6E 8B 0F 00 EA 98 0F 00  // ....U...n.......
    0480: 78 AB 0F 00 88 C2 0F 00 52 DD 0F 00 DF FA 0F 00  // x.......R.......
    0490: 0A 1A 00 00 92 39 00 00 23 58 00 00 65 74 00 00  // .....9..#X..et..
    04A0: 0C 8D 00 00 E3 A0 00 00 DC AE 00 00 1F B6 00 00  // ................
    04B0: 14 B6 00 00 6B AE 00 00 23 9F 00 00 8D 88 00 00  // ....k...#.......
    04C0: 4C 6B 00 00 50 48 00 00 D3 20 00 00 47 F6 0F 00  // Lk..PH... ..G...
    04D0: 4F CA 0F 00 AE 9E 0F 00 33 75 0F 00 A8 4F 0F 00  // O.......3u...O..
    04E0: C0 2F 0F 00 02 17 0F 00 BA 06 0F 00 E6 FF 0E 00  // ./..............
    04F0: 2D 03 0F 00 D3 10 0F 00 B4 28 0F 00 42 4A 0F 00  // -........(..BJ..
    0500: 86 74 0F 00 2A A6 0F 00 81 DD 0F 00 96 18 00 00  // .t..*...........
    0510: 3D 55 00 00 28 91 00 00 FE C9 00 00 6F FD 00 00  // =U..(.......o...
    0520: 4E 29 01 00 A5 4B 01 00 CB 62 01 00 75 6D 01 00  // N)...K...b..um..
    0530: C4 6A 01 00 52 5A 01 00 38 3C 01 00 0D 11 01 00  // .j..RZ..8<......
    0540: E9 D9 00 00 56 98 00 00 4A 4E 00 00 17 FE 0F 00  // ....V...JN......
    0550: 51 AA 0F 00 C4 55 0F 00 50 03 0F 00 D6 B5 0E 00  // Q....U..P.......
    0560: 20 70 0E 00 C8 34 0E 00 20 06 0E 00 1C E6 0D 00  //  p...4.. .......
    0570: 4B D6 0D 00 BD D7 0D 00 03 EB 0D 00 2A 10 0E 00  // K...........*...
    0580: B5 46 0E 00 AB 8D 0E 00 97 E3 0E 00 99 46 0F 00  // .F...........F..
    0590: 79 B4 0F 00 B3 2A 00 00 91 A6 00 00 3C 25 01 00  // y....*......<%..
    05A0: D9 A3 01 00 98 1F 02 00 CC 95 02 00 00 04 03 00  // ................
    05B0: 03 68 03 00 F8 BF 03 00 63 0A 04 00 28 46 04 00  // .h......c...(F..
    05C0: 9B 72 04 00 76 8F 04 00 D2 9C 04 00 35 9B 04 00  // .r..v.......5...
    05D0: 71 8B 04 00 A5 6E 04 00 32 46 04 00 A6 13 04 00  // q....n..2F......
    05E0: B3 D8 03 00 1B 97 03 00 A6 50 03 00 16 07 03 00  // .........P......
    05F0: 15 BC 02 00 31 71 02 00 CB 27 02 00 1D E1 01 00  // ....1q...'......
    0600: 2A 9E 01 00 C1 5F 01 00 7C 26 01 00 C0 F2 00 00  // *...._..|&......
    0610: C2 C4 00 00 8B 9C 00 00 FB 79 00 00 D2 5C 00 00  // .........y...\..
    0620: B2 44 00 00 2D 31 00 00 C5 21 00 00 F4 15 00 00  // .D..-1...!......
    0630: 5E 13 00 00 01 00 00 00 03 13 00 09 00 00 00 00  // ^...............
    0640: 03 03 00 00 00 00 00 00 00 00 00 00 00 00 00 00  // ................
    0650: 00 00 00 00 11 00 00 00 A0 02 04 00 00 00 00 00  // ................
    0660: 00 00 00 00 00 00 00 00 00 00 00 00 00 00 00 00  // ................
    0670: 00 00 00 00 11 00 00 00 AE 03 0E 00 00 00 00 00  // ................
    0680: 00 00 00 00 00 00 00 00 00 00 00 00 00 00 00 00  // ................
    0690: 00 00 00 00 08 00 00 00 AE FF 0F 00 12 FF 0F 00  // ................
    06A0: FB FD 0F 00 61 FC 0F 00 5A FA 0F 00 2B F8 0F 00  // ....a...Z...+...
    06B0: 41 F6 0F 00 20 F5 0F 00 44 F5 0F 00 F4 F6 0F 00  // A... ...D.......
    06C0: 25 FA 0F 00 65 FE 0F 00 E0 02 00 00 8F 06 00 00  // %...e...........
    06D0: 76 08 00 00 F1 07 00 00 F5 04 00 00 2A 00 00 00  // v...........*...
    06E0: D4 FA 0F 00 8A F6 0F 00 BF F4 0F 00 4F F6 0F 00  // ............O...
    06F0: 20 FB 0F 00 0F 02 00 00 29 09 00 00 2D 0E 00 00  //  .......)...-...
    0700: 40 0F 00 00 92 0B 00 00 BF 03 00 00 CD F9 0F 00  // @...............
    0710: B0 F0 0F 00 6E EB 0F 00 2A EC 0F 00 51 F3 0F 00  // ....n...*...Q...
    0720: 4F FF 0F 00 CD 0C 00 00 9D 17 00 00 FC 1B 00 00  // O...............
    0730: D7 17 00 00 A3 0B 00 00 7E FA 0F 00 6F E9 0F 00  // ........~...o...
    0740: F5 DD 0F 00 4D DC 0F 00 EE E5 0F 00 CE F8 0F 00  // ....M...........
    0750: B7 0F 00 00 A8 23 00 00 F5 2D 00 00 74 2A 00 00  // .....#...-..t*..
    0760: 10 19 00 00 2C FE 0F 00 9C E1 0F 00 64 CC 0F 00  // ....,.......d...
    0770: EE C5 0F 00 7E D1 0F 00 D4 EC 0F 00 71 10 00 00  // ....~.......q...
    0780: 98 31 00 00 7E 45 00 00 C9 44 00 00 24 2E 00 00  // .1..~E...D..$...
    0790: 28 07 00 00 0E DB 0F 00 81 B7 0F 00 6B A8 0F 00  // (...........k...
    07A0: 08 B4 0F 00 84 D8 0F 00 02 0C 00 00 37 3F 00 00  // ............7?..
    07B0: E8 61 00 00 07 68 00 00 C5 4D 00 00 54 19 00 00  // .a...h...M..T...
    07C0: 8C D9 0F 00 C8 A1 0F 00 0F 84 0F 00 52 8B 0F 00  // ............R...
    07D0: 8C B7 0F 00 23 FD 0F 00 DB 47 00 00 B1 80 00 00  // ....#....G......
    07E0: E3 94 00 00 08 7C 00 00 41 3B 00 00 5E E4 0F 00  // .....|..A;..^...
    07F0: 01 91 0F 00 1E 5B 0F 00 F4 54 0F 00 07 83 0F 00  // .....[...T......
    0800: 0B DA 0F 00 8F 41 00 00 D0 9A 00 00 D6 C9 00 00  // .....A..........
    0810: 16 BE 00 00 0B 78 00 00 DD 09 00 00 BA 92 0F 00  // .....x..........
    0820: 06 36 0F 00 ED 10 0F 00 5E 31 0F 00 35 91 0F 00  // .6......^1..5...
    0830: 2C 17 00 00 83 9D 00 00 9E FC 00 00 95 16 01 00  // ,...............
    0840: 5B E0 00 00 BF 65 00 00 ED C6 0F 00 F4 2F 0F 00  // [....e......./..
    0850: 96 CC 0E 00 C9 BB 0E 00 68 06 0F 00 E7 9B 0F 00  // ........h.......
    0860: 01 56 00 00 9E 02 01 00 40 71 01 00 65 80 01 00  // .V......@q..e...
    0870: 28 27 01 00 74 78 00 00 DB 9E 0F 00 02 D2 0E 00  // ('..tx..........
    0880: 6C 48 0E 00 4D 29 0E 00 0F 82 0E 00 4A 42 0F 00  // lH..M)......JB..
    0890: 29 3F 00 00 68 3D 01 00 61 FF 01 00 B2 53 02 00  // )?..h=..a....S..
    08A0: FA 20 02 00 E1 6B 01 00 38 56 00 00 98 17 0F 00  // . ...k..8V......
    08B0: 65 F1 0D 00 1A 21 0D 00 F9 D3 0C 00 B5 1E 0D 00  // e....!..........
    08C0: 89 FA 0D 00 02 48 0F 00 56 D6 00 00 63 6D 02 00  // .....H..V...cm..
    08D0: 08 D8 03 00 C3 EC 04 00 15 93 05 00 20 C5 05 00  // ............ ...
    08E0: B6 8D 05 00 D6 03 05 00 DD 44 04 00 CB 6E 03 00  // .........D...n..
    08F0: 9A 9B 02 00 5D DE 01 00 34 42 01 00 E0 CA 00 00  // ....]...4B......
    0900: 69 76 00 00 40 3F 00 00 4E 1E 00 00 95 0C 00 00  // iv..@?..N.......
    0910: 3B 04 00 00 F9 00 00 00 61 F9 0F 00 23 08 00 00  // ;.......a...#...
    0920: 4F 08 00 00 39 0A 00 00 21 0D 00 00 A8 10 00 00  // O...9...!.......
    0930: 9A 14 00 00 CC 18 00 00 15 1D 00 00 4D 21 00 00  // ............M!..
    0940: 43 25 00 00 C8 28 00 00 AA 2B 00 00 B8 2D 00 00  // C%...(...+...-..
    0950: C6 2E 00 00 AC 2E 00 00 4C 2D 00 00 90 2A 00 00  // ........L-...*..
    0960: 72 26 00 00 F9 20 00 00 3B 1A 00 00 5C 12 00 00  // r&... ..;...\...
    0970: 94 09 00 00 25 00 00 00 62 F6 0F 00 A3 EC 0F 00  // ....%...b.......
    0980: 4C E3 0F 00 BE DA 0F 00 64 D3 0F 00 94 CD 0F 00  // L.......d.......
    0990: A4 C9 0F 00 DD C7 0F 00 6B C8 0F 00 6E CB 0F 00  // ........k...n...
    09A0: E6 D0 0F 00 BB D8 0F 00 B9 E2 0F 00 8F EE 0F 00  // ................
    09B0: D5 FB 0F 00 0C 0A 00 00 A3 18 00 00 FC 26 00 00  // .............&..
    09C0: 74 34 00 00 65 40 00 00 36 4A 00 00 5A 51 00 00  // t4..e@..6J..ZQ..
    09D0: 5A 55 00 00 DF 55 00 00 B2 52 00 00 C3 4B 00 00  // ZU...U...R...K..
    09E0: 2C 41 00 00 32 33 00 00 42 22 00 00 F3 0E 00 00  // ,A..23..B"......
    09F0: FB F9 0F 00 30 E4 0F 00 78 CE 0F 00 C6 B9 0F 00  // ....0...x.......
    0A00: 0F A7 0F 00 3A 97 0F 00 1E 8B 0F 00 6E 83 0F 00  // ....:.......n...
    0A10: B7 80 0F 00 55 83 0F 00 6E 8B 0F 00 EA 98 0F 00  // ....U...n.......
    0A20: 78 AB 0F 00 88 C2 0F 00 52 DD 0F 00 DF FA 0F 00  // x.......R.......
    0A30: 0A 1A 00 00 92 39 00 00 23 58 00 00 65 74 00 00  // .....9..#X..et..
    0A40: 0C 8D 00 00 E3 A0 00 00 DC AE 00 00 1F B6 00 00  // ................
    0A50: 14 B6 00 00 6B AE 00 00 23 9F 00 00 8D 88 00 00  // ....k...#.......
    0A60: 4C 6B 00 00 50 48 00 00 D3 20 00 00 47 F6 0F 00  // Lk..PH... ..G...
    0A70: 4F CA 0F 00 AE 9E 0F 00 33 75 0F 00 A8 4F 0F 00  // O.......3u...O..
    0A80: C0 2F 0F 00 02 17 0F 00 BA 06 0F 00 E6 FF 0E 00  // ./..............
    0A90: 2D 03 0F 00 D3 10 0F 00 B4 28 0F 00 42 4A 0F 00  // -........(..BJ..
    0AA0: 86 74 0F 00 2A A6 0F 00 81 DD 0F 00 96 18 00 00  // .t..*...........
    0AB0: 3D 55 00 00 28 91 00 00 FE C9 00 00 6F FD 00 00  // =U..(.......o...
    0AC0: 4E 29 01 00 A5 4B 01 00 CB 62 01 00 75 6D 01 00  // N)...K...b..um..
    0AD0: C4 6A 01 00 52 5A 01 00 38 3C 01 00 0D 11 01 00  // .j..RZ..8<......
    0AE0: E9 D9 00 00 56 98 00 00 4A 4E 00 00 17 FE 0F 00  // ....V...JN......
    0AF0: 51 AA 0F 00 C4 55 0F 00 50 03 0F 00 D6 B5 0E 00  // Q....U..P.......
    0B00: 20 70 0E 00 C8 34 0E 00 20 06 0E 00 1C E6 0D 00  //  p...4.. .......
    0B10: 4B D6 0D 00 BD D7 0D 00 03 EB 0D 00 2A 10 0E 00  // K...........*...
    0B20: B5 46 0E 00 AB 8D 0E 00 97 E3 0E 00 99 46 0F 00  // .F...........F..
    0B30: 79 B4 0F 00 B3 2A 00 00 91 A6 00 00 3C 25 01 00  // y....*......<%..
    0B40: D9 A3 01 00 98 1F 02 00 CC 95 02 00 00 04 03 00  // ................
    0B50: 03 68 03 00 F8 BF 03 00 63 0A 04 00 28 46 04 00  // .h......c...(F..
    0B60: 9B 72 04 00 76 8F 04 00 D2 9C 04 00 35 9B 04 00  // .r..v.......5...
    0B70: 71 8B 04 00 A5 6E 04 00 32 46 04 00 A6 13 04 00  // q....n..2F......
    0B80: B3 D8 03 00 1B 97 03 00 A6 50 03 00 16 07 03 00  // .........P......
    0B90: 15 BC 02 00 31 71 02 00 CB 27 02 00 1D E1 01 00  // ....1q...'......
    0BA0: 2A 9E 01 00 C1 5F 01 00 7C 26 01 00 C0 F2 00 00  // *...._..|&......
    0BB0: C2 C4 00 00 8B 9C 00 00 FB 79 00 00 D2 5C 00 00  // .........y...\..
    0BC0: B2 44 00 00 2D 31 00 00 C5 21 00 00 F4 15 00 00  // .D..-1...!......
    0BD0: 5E 13 00 00 FE FF 04 00 80 BB 00 00 00 DC 05 00  // ^...............
    0BE0: 08 00 20 00 16 00 18 00 33 00 00 00 01 00 00 00  // .. .....3.......
    0BF0: 00 00 10 00 80 00 00 AA 00 38 9B 71 68 0B 00 00  // .........8.qh...
    0C00: 01 00 00 00 10 32 FF FF 10 FF FF FF 32 FF FF FF  // .....2......2...
    0C10: FF FF FF FF 03 00 00 00 03 00 00 00 03 00 3A 00  // ..............:.
    0C20: 03 00 3A 00 03 00 00 00 01 00 00 00 03 13 00 09  // ..:.............
    0C30: 00 00 00 00 03 03 00 00 00 00 00 00 00 00 00 00  // ................
    0C40: 00 00 00 00 00 00 00 00 11 00 00 00 A0 02 04 00  // ................
    0C50: 00 00 00 00 00 00 00 00 00 00 00 00 00 00 00 00  // ................
    0C60: 00 00 00 00 00 00 00 00 11 00 00 00 AE 03 0E 00  // ................
    0C70: 00 00 00 00 00 00 00 00 00 00 00 00 00 00 00 00  // ................
    0C80: 00 00 00 00 00 00 00 00 08 00 00 00 AE FF 0F 00  // ................
    0C90: 12 FF 0F 00 FB FD 0F 00 61 FC 0F 00 5A FA 0F 00  // ........a...Z...
    0CA0: 2B F8 0F 00 41 F6 0F 00 20 F5 0F 00 44 F5 0F 00  // +...A... ...D...
    0CB0: F4 F6 0F 00 25 FA 0F 00 65 FE 0F 00 E0 02 00 00  // ....%...e.......
    0CC0: 8F 06 00 00 76 08 00 00 F1 07 00 00 F5 04 00 00  // ....v...........
    0CD0: 2A 00 00 00 D4 FA 0F 00 8A F6 0F 00 BF F4 0F 00  // *...............
    0CE0: 4F F6 0F 00 20 FB 0F 00 0F 02 00 00 29 09 00 00  // O... .......)...
    0CF0: 2D 0E 00 00 40 0F 00 00 92 0B 00 00 BF 03 00 00  // -...@...........
    0D00: CD F9 0F 00 B0 F0 0F 00 6E EB 0F 00 2A EC 0F 00  // ........n...*...
    0D10: 51 F3 0F 00 4F FF 0F 00 CD 0C 00 00 9D 17 00 00  // Q...O...........
    0D20: FC 1B 00 00 D7 17 00 00 A3 0B 00 00 7E FA 0F 00  // ............~...
    0D30: 6F E9 0F 00 F5 DD 0F 00 4D DC 0F 00 EE E5 0F 00  // o.......M.......
    0D40: CE F8 0F 00 B7 0F 00 00 A8 23 00 00 F5 2D 00 00  // .........#...-..
    0D50: 74 2A 00 00 10 19 00 00 2C FE 0F 00 9C E1 0F 00  // t*......,.......
    0D60: 64 CC 0F 00 EE C5 0F 00 7E D1 0F 00 D4 EC 0F 00  // d.......~.......
    0D70: 71 10 00 00 98 31 00 00 7E 45 00 00 C9 44 00 00  // q....1..~E...D..
    0D80: 24 2E 00 00 28 07 00 00 0E DB 0F 00 81 B7 0F 00  // $...(...........
    0D90: 6B A8 0F 00 08 B4 0F 00 84 D8 0F 00 02 0C 00 00  // k...............
    0DA0: 37 3F 00 00 E8 61 00 00 07 68 00 00 C5 4D 00 00  // 7?...a...h...M..
    0DB0: 54 19 00 00 8C D9 0F 00 C8 A1 0F 00 0F 84 0F 00  // T...............
    0DC0: 52 8B 0F 00 8C B7 0F 00 23 FD 0F 00 DB 47 00 00  // R.......#....G..
    0DD0: B1 80 00 00 E3 94 00 00 08 7C 00 00 41 3B 00 00  // .........|..A;..
    0DE0: 5E E4 0F 00 01 91 0F 00 1E 5B 0F 00 F4 54 0F 00  // ^........[...T..
    0DF0: 07 83 0F 00 0B DA 0F 00 8F 41 00 00 D0 9A 00 00  // .........A......
    0E00: D6 C9 00 00 16 BE 00 00 0B 78 00 00 DD 09 00 00  // .........x......
    0E10: BA 92 0F 00 06 36 0F 00 ED 10 0F 00 5E 31 0F 00  // .....6......^1..
    0E20: 35 91 0F 00 2C 17 00 00 83 9D 00 00 9E FC 00 00  // 5...,...........
    0E30: 95 16 01 00 5B E0 00 00 BF 65 00 00 ED C6 0F 00  // ....[....e......
    0E40: F4 2F 0F 00 96 CC 0E 00 C9 BB 0E 00 68 06 0F 00  // ./..........h...
    0E50: E7 9B 0F 00 01 56 00 00 9E 02 01 00 40 71 01 00  // .....V......@q..
    0E60: 65 80 01 00 28 27 01 00 74 78 00 00 DB 9E 0F 00  // e...('..tx......
    0E70: 02 D2 0E 00 6C 48 0E 00 4D 29 0E 00 0F 82 0E 00  // ....lH..M)......
    0E80: 4A 42 0F 00 29 3F 00 00 68 3D 01 00 61 FF 01 00  // JB..)?..h=..a...
    0E90: B2 53 02 00 FA 20 02 00 E1 6B 01 00 38 56 00 00  // .S... ...k..8V..
    0EA0: 98 17 0F 00 65 F1 0D 00 1A 21 0D 00 F9 D3 0C 00  // ....e....!......
    0EB0: B5 1E 0D 00 89 FA 0D 00 02 48 0F 00 56 D6 00 00  // .........H..V...
    0EC0: 63 6D 02 00 08 D8 03 00 C3 EC 04 00 15 93 05 00  // cm..............
    0ED0: 20 C5 05 00 B6 8D 05 00 D6 03 05 00 DD 44 04 00  //  ............D..
    0EE0: CB 6E 03 00 9A 9B 02 00 5D DE 01 00 34 42 01 00  // .n......]...4B..
    0EF0: E0 CA 00 00 69 76 00 00 40 3F 00 00 4E 1E 00 00  // ....iv..@?..N...
    0F00: 95 0C 00 00 3B 04 00 00 F9 00 00 00 61 F9 0F 00  // ....;.......a...
    0F10: 23 08 00 00 4F 08 00 00 39 0A 00 00 21 0D 00 00  // #...O...9...!...
    0F20: A8 10 00 00 9A 14 00 00 CC 18 00 00 15 1D 00 00  // ................
    0F30: 4D 21 00 00 43 25 00 00 C8 28 00 00 AA 2B 00 00  // M!..C%...(...+..
    0F40: B8 2D 00 00 C6 2E 00 00 AC 2E 00 00 4C 2D 00 00  // .-..........L-..
    0F50: 90 2A 00 00 72 26 00 00 F9 20 00 00 3B 1A 00 00  // .*..r&... ..;...
    0F60: 5C 12 00 00 94 09 00 00 25 00 00 00 62 F6 0F 00  // \.......%...b...
    0F70: A3 EC 0F 00 4C E3 0F 00 BE DA 0F 00 64 D3 0F 00  // ....L.......d...
    0F80: 94 CD 0F 00 A4 C9 0F 00 DD C7 0F 00 6B C8 0F 00  // ............k...
    0F90: 6E CB 0F 00 E6 D0 0F 00 BB D8 0F 00 B9 E2 0F 00  // n...............
    0FA0: 8F EE 0F 00 D5 FB 0F 00 0C 0A 00 00 A3 18 00 00  // ................
    0FB0: FC 26 00 00 74 34 00 00 65 40 00 00 36 4A 00 00  // .&..t4..e@..6J..
    0FC0: 5A 51 00 00 5A 55 00 00 DF 55 00 00 B2 52 00 00  // ZQ..ZU...U...R..
    0FD0: C3 4B 00 00 2C 41 00 00 32 33 00 00 42 22 00 00  // .K..,A..23..B"..
    0FE0: F3 0E 00 00 FB F9 0F 00 30 E4 0F 00 78 CE 0F 00  // ........0...x...
    0FF0: C6 B9 0F 00 0F A7 0F 00 3A 97 0F 00 1E 8B 0F 00  // ........:.......
    1000: 6E 83 0F 00 B7 80 0F 00 55 83 0F 00 6E 8B 0F 00  // n.......U...n...
    1010: EA 98 0F 00 78 AB 0F 00 88 C2 0F 00 52 DD 0F 00  // ....x.......R...
    1020: DF FA 0F 00 0A 1A 00 00 92 39 00 00 23 58 00 00  // .........9..#X..
    1030: 65 74 00 00 0C 8D 00 00 E3 A0 00 00 DC AE 00 00  // et..............
    1040: 1F B6 00 00 14 B6 00 00 6B AE 00 00 23 9F 00 00  // ........k...#...
    1050: 8D 88 00 00 4C 6B 00 00 50 48 00 00 D3 20 00 00  // ....Lk..PH... ..
    1060: 47 F6 0F 00 4F CA 0F 00 AE 9E 0F 00 33 75 0F 00  // G...O.......3u..
    1070: A8 4F 0F 00 C0 2F 0F 00 02 17 0F 00 BA 06 0F 00  // .O.../..........
    1080: E6 FF 0E 00 2D 03 0F 00 D3 10 0F 00 B4 28 0F 00  // ....-........(..
    1090: 42 4A 0F 00 86 74 0F 00 2A A6 0F 00 81 DD 0F 00  // BJ...t..*.......
    10A0: 96 18 00 00 3D 55 00 00 28 91 00 00 FE C9 00 00  // ....=U..(.......
    10B0: 6F FD 00 00 4E 29 01 00 A5 4B 01 00 CB 62 01 00  // o...N)...K...b..
    10C0: 75 6D 01 00 C4 6A 01 00 52 5A 01 00 38 3C 01 00  // um...j..RZ..8<..
    10D0: 0D 11 01 00 E9 D9 00 00 56 98 00 00 4A 4E 00 00  // ........V...JN..
    10E0: 17 FE 0F 00 51 AA 0F 00 C4 55 0F 00 50 03 0F 00  // ....Q....U..P...
    10F0: D6 B5 0E 00 20 70 0E 00 C8 34 0E 00 20 06 0E 00  // .... p...4.. ...
    1100: 1C E6 0D 00 4B D6 0D 00 BD D7 0D 00 03 EB 0D 00  // ....K...........
    1110: 2A 10 0E 00 B5 46 0E 00 AB 8D 0E 00 97 E3 0E 00  // *....F..........
    1120: 99 46 0F 00 79 B4 0F 00 B3 2A 00 00 91 A6 00 00  // .F..y....*......
    1130: 3C 25 01 00 D9 A3 01 00 98 1F 02 00 CC 95 02 00  // <%..............
    1140: 00 04 03 00 03 68 03 00 F8 BF 03 00 63 0A 04 00  // .....h......c...
    1150: 28 46 04 00 9B 72 04 00 76 8F 04 00 D2 9C 04 00  // (F...r..v.......
    1160: 35 9B 04 00 71 8B 04 00 A5 6E 04 00 32 46 04 00  // 5...q....n..2F..
    1170: A6 13 04 00 B3 D8 03 00 1B 97 03 00 A6 50 03 00  // .............P..
    1180: 16 07 03 00 15 BC 02 00 31 71 02 00 CB 27 02 00  // ........1q...'..
    1190: 1D E1 01 00 2A 9E 01 00 C1 5F 01 00 7C 26 01 00  // ....*...._..|&..
    11A0: C0 F2 00 00 C2 C4 00 00 8B 9C 00 00 FB 79 00 00  // .............y..
    11B0: D2 5C 00 00 B2 44 00 00 2D 31 00 00 C5 21 00 00  // .\...D..-1...!..
    11C0: F4 15 00 00 5E 13 00 00 01 00 00 00 03 13 00 09  // ....^...........
    11D0: 00 00 00 00 03 03 00 00 00 00 00 00 00 00 00 00  // ................
    11E0: 00 00 00 00 00 00 00 00 11 00 00 00 A0 02 04 00  // ................
    11F0: 00 00 00 00 00 00 00 00 00 00 00 00 00 00 00 00  // ................
    1200: 00 00 00 00 00 00 00 00 11 00 00 00 AE 03 0E 00  // ................
    1210: 00 00 00 00 00 00 00 00 00 00 00 00 00 00 00 00  // ................
    1220: 00 00 00 00 00 00 00 00 08 00 00 00 AE FF 0F 00  // ................
    1230: 12 FF 0F 00 FB FD 0F 00 61 FC 0F 00 5A FA 0F 00  // ........a...Z...
    1240: 2B F8 0F 00 41 F6 0F 00 20 F5 0F 00 44 F5 0F 00  // +...A... ...D...
    1250: F4 F6 0F 00 25 FA 0F 00 65 FE 0F 00 E0 02 00 00  // ....%...e.......
    1260: 8F 06 00 00 76 08 00 00 F1 07 00 00 F5 04 00 00  // ....v...........
    1270: 2A 00 00 00 D4 FA 0F 00 8A F6 0F 00 BF F4 0F 00  // *...............
    1280: 4F F6 0F 00 20 FB 0F 00 0F 02 00 00 29 09 00 00  // O... .......)...
    1290: 2D 0E 00 00 40 0F 00 00 92 0B 00 00 BF 03 00 00  // -...@...........
    12A0: CD F9 0F 00 B0 F0 0F 00 6E EB 0F 00 2A EC 0F 00  // ........n...*...
    12B0: 51 F3 0F 00 4F FF 0F 00 CD 0C 00 00 9D 17 00 00  // Q...O...........
    12C0: FC 1B 00 00 D7 17 00 00 A3 0B 00 00 7E FA 0F 00  // ............~...
    12D0: 6F E9 0F 00 F5 DD 0F 00 4D DC 0F 00 EE E5 0F 00  // o.......M.......
    12E0: CE F8 0F 00 B7 0F 00 00 A8 23 00 00 F5 2D 00 00  // .........#...-..
    12F0: 74 2A 00 00 10 19 00 00 2C FE 0F 00 9C E1 0F 00  // t*......,.......
    1300: 64 CC 0F 00 EE C5 0F 00 7E D1 0F 00 D4 EC 0F 00  // d.......~.......
    1310: 71 10 00 00 98 31 00 00 7E 45 00 00 C9 44 00 00  // q....1..~E...D..
    1320: 24 2E 00 00 28 07 00 00 0E DB 0F 00 81 B7 0F 00  // $...(...........
    1330: 6B A8 0F 00 08 B4 0F 00 84 D8 0F 00 02 0C 00 00  // k...............
    1340: 37 3F 00 00 E8 61 00 00 07 68 00 00 C5 4D 00 00  // 7?...a...h...M..
    1350: 54 19 00 00 8C D9 0F 00 C8 A1 0F 00 0F 84 0F 00  // T...............
    1360: 52 8B 0F 00 8C B7 0F 00 23 FD 0F 00 DB 47 00 00  // R.......#....G..
    1370: B1 80 00 00 E3 94 00 00 08 7C 00 00 41 3B 00 00  // .........|..A;..
    1380: 5E E4 0F 00 01 91 0F 00 1E 5B 0F 00 F4 54 0F 00  // ^........[...T..
    1390: 07 83 0F 00 0B DA 0F 00 8F 41 00 00 D0 9A 00 00  // .........A......
    13A0: D6 C9 00 00 16 BE 00 00 0B 78 00 00 DD 09 00 00  // .........x......
    13B0: BA 92 0F 00 06 36 0F 00 ED 10 0F 00 5E 31 0F 00  // .....6......^1..
    13C0: 35 91 0F 00 2C 17 00 00 83 9D 00 00 9E FC 00 00  // 5...,...........
    13D0: 95 16 01 00 5B E0 00 00 BF 65 00 00 ED C6 0F 00  // ....[....e......
    13E0: F4 2F 0F 00 96 CC 0E 00 C9 BB 0E 00 68 06 0F 00  // ./..........h...
    13F0: E7 9B 0F 00 01 56 00 00 9E 02 01 00 40 71 01 00  // .....V......@q..
    1400: 65 80 01 00 28 27 01 00 74 78 00 00 DB 9E 0F 00  // e...('..tx......
    1410: 02 D2 0E 00 6C 48 0E 00 4D 29 0E 00 0F 82 0E 00  // ....lH..M)......
    1420: 4A 42 0F 00 29 3F 00 00 68 3D 01 00 61 FF 01 00  // JB..)?..h=..a...
    1430: B2 53 02 00 FA 20 02 00 E1 6B 01 00 38 56 00 00  // .S... ...k..8V..
    1440: 98 17 0F 00 65 F1 0D 00 1A 21 0D 00 F9 D3 0C 00  // ....e....!......
    1450: B5 1E 0D 00 89 FA 0D 00 02 48 0F 00 56 D6 00 00  // .........H..V...
    1460: 63 6D 02 00 08 D8 03 00 C3 EC 04 00 15 93 05 00  // cm..............
    1470: 20 C5 05 00 B6 8D 05 00 D6 03 05 00 DD 44 04 00  //  ............D..
    1480: CB 6E 03 00 9A 9B 02 00 5D DE 01 00 34 42 01 00  // .n......]...4B..
    1490: E0 CA 00 00 69 76 00 00 40 3F 00 00 4E 1E 00 00  // ....iv..@?..N...
    14A0: 95 0C 00 00 3B 04 00 00 F9 00 00 00 61 F9 0F 00  // ....;.......a...
    14B0: 23 08 00 00 4F 08 00 00 39 0A 00 00 21 0D 00 00  // #...O...9...!...
    14C0: A8 10 00 00 9A 14 00 00 CC 18 00 00 15 1D 00 00  // ................
    14D0: 4D 21 00 00 43 25 00 00 C8 28 00 00 AA 2B 00 00  // M!..C%...(...+..
    14E0: B8 2D 00 00 C6 2E 00 00 AC 2E 00 00 4C 2D 00 00  // .-..........L-..
    14F0: 90 2A 00 00 72 26 00 00 F9 20 00 00 3B 1A 00 00  // .*..r&... ..;...
    1500: 5C 12 00 00 94 09 00 00 25 00 00 00 62 F6 0F 00  // \.......%...b...
    1510: A3 EC 0F 00 4C E3 0F 00 BE DA 0F 00 64 D3 0F 00  // ....L.......d...
    1520: 94 CD 0F 00 A4 C9 0F 00 DD C7 0F 00 6B C8 0F 00  // ............k...
    1530: 6E CB 0F 00 E6 D0 0F 00 BB D8 0F 00 B9 E2 0F 00  // n...............
    1540: 8F EE 0F 00 D5 FB 0F 00 0C 0A 00 00 A3 18 00 00  // ................
    1550: FC 26 00 00 74 34 00 00 65 40 00 00 36 4A 00 00  // .&..t4..e@..6J..
    1560: 5A 51 00 00 5A 55 00 00 DF 55 00 00 B2 52 00 00  // ZQ..ZU...U...R..
    1570: C3 4B 00 00 2C 41 00 00 32 33 00 00 42 22 00 00  // .K..,A..23..B"..
    1580: F3 0E 00 00 FB F9 0F 00 30 E4 0F 00 78 CE 0F 00  // ........0...x...
    1590: C6 B9 0F 00 0F A7 0F 00 3A 97 0F 00 1E 8B 0F 00  // ........:.......
    15A0: 6E 83 0F 00 B7 80 0F 00 55 83 0F 00 6E 8B 0F 00  // n.......U...n...
    15B0: EA 98 0F 00 78 AB 0F 00 88 C2 0F 00 52 DD 0F 00  // ....x.......R...
    15C0: DF FA 0F 00 0A 1A 00 00 92 39 00 00 23 58 00 00  // .........9..#X..
    15D0: 65 74 00 00 0C 8D 00 00 E3 A0 00 00 DC AE 00 00  // et..............
    15E0: 1F B6 00 00 14 B6 00 00 6B AE 00 00 23 9F 00 00  // ........k...#...
    15F0: 8D 88 00 00 4C 6B 00 00 50 48 00 00 D3 20 00 00  // ....Lk..PH... ..
    1600: 47 F6 0F 00 4F CA 0F 00 AE 9E 0F 00 33 75 0F 00  // G...O.......3u..
    1610: A8 4F 0F 00 C0 2F 0F 00 02 17 0F 00 BA 06 0F 00  // .O.../..........
    1620: E6 FF 0E 00 2D 03 0F 00 D3 10 0F 00 B4 28 0F 00  // ....-........(..
    1630: 42 4A 0F 00 86 74 0F 00 2A A6 0F 00 81 DD 0F 00  // BJ...t..*.......
    1640: 96 18 00 00 3D 55 00 00 28 91 00 00 FE C9 00 00  // ....=U..(.......
    1650: 6F FD 00 00 4E 29 01 00 A5 4B 01 00 CB 62 01 00  // o...N)...K...b..
    1660: 75 6D 01 00 C4 6A 01 00 52 5A 01 00 38 3C 01 00  // um...j..RZ..8<..
    1670: 0D 11 01 00 E9 D9 00 00 56 98 00 00 4A 4E 00 00  // ........V...JN..
    1680: 17 FE 0F 00 51 AA 0F 00 C4 55 0F 00 50 03 0F 00  // ....Q....U..P...
    1690: D6 B5 0E 00 20 70 0E 00 C8 34 0E 00 20 06 0E 00  // .... p...4.. ...
    16A0: 1C E6 0D 00 4B D6 0D 00 BD D7 0D 00 03 EB 0D 00  // ....K...........
    16B0: 2A 10 0E 00 B5 46 0E 00 AB 8D 0E 00 97 E3 0E 00  // *....F..........
    16C0: 99 46 0F 00 79 B4 0F 00 B3 2A 00 00 91 A6 00 00  // .F..y....*......
    16D0: 3C 25 01 00 D9 A3 01 00 98 1F 02 00 CC 95 02 00  // <%..............
    16E0: 00 04 03 00 03 68 03 00 F8 BF 03 00 63 0A 04 00  // .....h......c...
    16F0: 28 46 04 00 9B 72 04 00 76 8F 04 00 D2 9C 04 00  // (F...r..v.......
    1700: 35 9B 04 00 71 8B 04 00 A5 6E 04 00 32 46 04 00  // 5...q....n..2F..
    1710: A6 13 04 00 B3 D8 03 00 1B 97 03 00 A6 50 03 00  // .............P..
    1720: 16 07 03 00 15 BC 02 00 31 71 02 00 CB 27 02 00  // ........1q...'..
    1730: 1D E1 01 00 2A 9E 01 00 C1 5F 01 00 7C 26 01 00  // ....*...._..|&..
    1740: C0 F2 00 00 C2 C4 00 00 8B 9C 00 00 FB 79 00 00  // .............y..
    1750: D2 5C 00 00 B2 44 00 00 2D 31 00 00 C5 21 00 00  // .\...D..-1...!..
    1760: F4 15 00 00 5E 13 00 00 00 04 00 00 00 DE AD BE  // ....^...........
    1770: EF                                               // .
